target datalayout = "e-m:e-p270:32:32-p271:32:32-p272:64:64-i64:64-i128:128-f80:128-n8:16:32:64-S128"
target triple = "x86_64-pc-linux-gnu"

%"struct.llvm::DWARFDebugLine::ContentTypeTracker" = type { i8, i8, i8, i8 }
%"struct.llvm::DWARFDebugLine::Prologue" = type { i64, %"struct.llvm::dwarf::FormParams", i64, i8, i8, i8, i8, i8, i8, i8, %"struct.llvm::DWARFDebugLine::ContentTypeTracker", %"class.std::vector", %"class.std::vector.0", %"class.std::vector.5" }
%"struct.llvm::dwarf::FormParams" = type <{ i16, i8, i8, i8, i8 }>
%"class.std::vector" = type { %"struct.std::_Vector_base" }
%"struct.std::_Vector_base" = type { %"struct.std::_Vector_base<unsigned char, std::allocator<unsigned char>>::_Vector_impl" }
%"struct.std::_Vector_base<unsigned char, std::allocator<unsigned char>>::_Vector_impl" = type { %"struct.std::_Vector_base<unsigned char, std::allocator<unsigned char>>::_Vector_impl_data" }
%"struct.std::_Vector_base<unsigned char, std::allocator<unsigned char>>::_Vector_impl_data" = type { ptr, ptr, ptr }
%"class.std::vector.0" = type { %"struct.std::_Vector_base.1" }
%"struct.std::_Vector_base.1" = type { %"struct.std::_Vector_base<llvm::DWARFFormValue, std::allocator<llvm::DWARFFormValue>>::_Vector_impl" }
%"struct.std::_Vector_base<llvm::DWARFFormValue, std::allocator<llvm::DWARFFormValue>>::_Vector_impl" = type { %"struct.std::_Vector_base<llvm::DWARFFormValue, std::allocator<llvm::DWARFFormValue>>::_Vector_impl_data" }
%"struct.std::_Vector_base<llvm::DWARFFormValue, std::allocator<llvm::DWARFFormValue>>::_Vector_impl_data" = type { ptr, ptr, ptr }
%"class.std::vector.5" = type { %"struct.std::_Vector_base.6" }
%"struct.std::_Vector_base.6" = type { %"struct.std::_Vector_base<llvm::DWARFDebugLine::FileNameEntry, std::allocator<llvm::DWARFDebugLine::FileNameEntry>>::_Vector_impl" }
%"struct.std::_Vector_base<llvm::DWARFDebugLine::FileNameEntry, std::allocator<llvm::DWARFDebugLine::FileNameEntry>>::_Vector_impl" = type { %"struct.std::_Vector_base<llvm::DWARFDebugLine::FileNameEntry, std::allocator<llvm::DWARFDebugLine::FileNameEntry>>::_Vector_impl_data" }
%"struct.std::_Vector_base<llvm::DWARFDebugLine::FileNameEntry, std::allocator<llvm::DWARFDebugLine::FileNameEntry>>::_Vector_impl_data" = type { ptr, ptr, ptr }
%"class.llvm::StringRef" = type { ptr, i64 }
%"class.llvm::DataExtractor" = type <{ %"class.llvm::StringRef", i8, i8, [6 x i8] }>
%"struct.std::_Rb_tree_header" = type { %"struct.std::_Rb_tree_node_base", i64 }
%"struct.std::_Rb_tree_node_base" = type { i32, ptr, ptr, ptr }
%"class.std::map.153" = type { %"class.std::_Rb_tree.154" }
%"class.std::_Rb_tree.154" = type { %"struct.std::_Rb_tree<unsigned long, std::pair<const unsigned long, llvm::DWARFUnit *>, std::_Select1st<std::pair<const unsigned long, llvm::DWARFUnit *>>, std::less<unsigned long>>::_Rb_tree_impl" }
%"struct.std::_Rb_tree<unsigned long, std::pair<const unsigned long, llvm::DWARFUnit *>, std::_Select1st<std::pair<const unsigned long, llvm::DWARFUnit *>>, std::less<unsigned long>>::_Rb_tree_impl" = type { [8 x i8], %"struct.std::_Rb_tree_header" }
%"class.llvm::DWARFDebugLine::SectionParser" = type <{ %"class.std::map.153", ptr, ptr, i64, i8, [7 x i8] }>
%"class.std::initializer_list" = type { ptr, i64 }

; Function Attrs: mustprogress nounwind uwtable
define linkonce_odr hidden noundef i64 @_ZNK4llvm9StringRef4sizeEv(ptr noundef nonnull align 8 dereferenceable(16) %0) #0 comdat align 2 {
  %2 = alloca ptr, align 8
  store ptr %0, ptr %2, align 8
  %3 = load ptr, ptr %2, align 8
  %4 = getelementptr inbounds nuw %"class.llvm::StringRef", ptr %3, i32 0, i32 1
  %5 = load i64, ptr %4, align 8
  ret i64 %5
}

; Function Attrs: mustprogress nounwind uwtable
define linkonce_odr hidden noundef i64 @_ZN4llvm10divideCeilImjmEET1_T_T0_(i64 noundef %0, i32 noundef %1) #0 comdat {
  %3 = alloca i64, align 8
  %4 = alloca i32, align 4
  %5 = alloca i64, align 8
  store i64 %0, ptr %3, align 8
  store i32 %1, ptr %4, align 4
  %6 = load i64, ptr %3, align 8
  %7 = icmp ne i64 %6, 0
  %8 = zext i1 %7 to i64
  store i64 %8, ptr %5, align 8
  %9 = load i64, ptr %3, align 8
  %10 = load i64, ptr %5, align 8
  %11 = sub i64 %9, %10
  %12 = load i32, ptr %4, align 4
  %13 = zext i32 %12 to i64
  %14 = udiv i64 %11, %13
  %15 = load i64, ptr %5, align 8
  %16 = add i64 %14, %15
  ret i64 %16
}

; Function Attrs: mustprogress nounwind uwtable
define linkonce_odr hidden noundef i64 @_ZNKSt16initializer_listIiE4sizeEv(ptr noundef nonnull align 8 dereferenceable(16) %0) #0 comdat align 2 {
  %2 = alloca ptr, align 8
  store ptr %0, ptr %2, align 8
  %3 = load ptr, ptr %2, align 8
  %4 = getelementptr inbounds nuw %"class.std::initializer_list", ptr %3, i32 0, i32 1
  %5 = load i64, ptr %4, align 8
  ret i64 %5
}

; Function Attrs: mustprogress nounwind uwtable
define linkonce_odr hidden noundef i64 @_ZNK4llvm13DataExtractor4sizeEv(ptr noundef nonnull align 8 dereferenceable(18) %0) #0 comdat align 2 {
  %2 = alloca ptr, align 8
  store ptr %0, ptr %2, align 8
  %3 = load ptr, ptr %2, align 8
  %4 = getelementptr inbounds nuw %"class.llvm::DataExtractor", ptr %3, i32 0, i32 0
  %5 = call noundef i64 @_ZNK4llvm9StringRef4sizeEv(ptr noundef nonnull align 8 dereferenceable(16) %4)
  ret i64 %5
}

; Function Attrs: mustprogress nounwind uwtable
define linkonce_odr hidden noundef zeroext i1 @_ZNK4llvm14DWARFDebugLine8Prologue9isDWARF64Ev(ptr noundef nonnull align 8 dereferenceable(112) %0) #0 comdat align 2 {
  %2 = alloca ptr, align 8
  store ptr %0, ptr %2, align 8
  %3 = load ptr, ptr %2, align 8
  %4 = getelementptr inbounds nuw %"struct.llvm::DWARFDebugLine::Prologue", ptr %3, i32 0, i32 1
  %5 = getelementptr inbounds nuw %"struct.llvm::dwarf::FormParams", ptr %4, i32 0, i32 2
  %6 = load i8, ptr %5, align 1
  %7 = zext i8 %6 to i32
  %8 = icmp eq i32 %7, 1
  ret i1 %8
}

; Function Attrs: mustprogress nounwind uwtable
define linkonce_odr hidden noundef i64 @_ZN4llvm7alignToImjmEET1_T_T0_(i64 noundef %0, i32 noundef %1) #0 comdat {
  %3 = alloca i64, align 8
  %4 = alloca i32, align 4
  %5 = alloca i64, align 8
  store i64 %0, ptr %3, align 8
  store i32 %1, ptr %4, align 4
  %6 = load i64, ptr %3, align 8
  %7 = load i32, ptr %4, align 4
  %8 = call noundef i64 @_ZN4llvm10divideCeilImjmEET1_T_T0_(i64 noundef %6, i32 noundef %7)
  store i64 %8, ptr %5, align 8
  %9 = load i64, ptr %5, align 8
  %10 = load i32, ptr %4, align 4
  %11 = zext i32 %10 to i64
  %12 = mul i64 %9, %11
  ret i64 %12
}

; Function Attrs: mustprogress nounwind uwtable
define linkonce_odr hidden noundef ptr @_ZNKSt16initializer_listIiE3endEv(ptr noundef nonnull align 8 dereferenceable(16) %0) #0 comdat align 2 {
  %2 = alloca ptr, align 8
  store ptr %0, ptr %2, align 8
  %3 = load ptr, ptr %2, align 8
  %4 = call noundef ptr @_ZNKSt16initializer_listIiE5beginEv(ptr noundef nonnull align 8 dereferenceable(16) %3) #14
  %5 = call noundef i64 @_ZNKSt16initializer_listIiE4sizeEv(ptr noundef nonnull align 8 dereferenceable(16) %3) #14
  %6 = getelementptr inbounds i32, ptr %4, i64 %5
  ret ptr %6
}

; Function Attrs: mustprogress nounwind uwtable
define linkonce_odr hidden noundef ptr @_ZNKSt16initializer_listIiE5beginEv(ptr noundef nonnull align 8 dereferenceable(16) %0) #0 comdat align 2 {
  %2 = alloca ptr, align 8
  store ptr %0, ptr %2, align 8
  %3 = load ptr, ptr %2, align 8
  %4 = getelementptr inbounds nuw %"class.std::initializer_list", ptr %3, i32 0, i32 0
  %5 = load ptr, ptr %4, align 8
  ret ptr %5
}

; Function Attrs: mustprogress nounwind uwtable
define linkonce_odr hidden noundef zeroext i1 @_ZNK4llvm13DataExtractor13isValidOffsetEm(ptr noundef nonnull align 8 dereferenceable(18) %0, i64 noundef %1) #0 comdat align 2 {
  %3 = alloca ptr, align 8
  %4 = alloca i64, align 8
  store ptr %0, ptr %3, align 8
  store i64 %1, ptr %4, align 8
  %5 = load ptr, ptr %3, align 8
  %6 = call noundef i64 @_ZNK4llvm13DataExtractor4sizeEv(ptr noundef nonnull align 8 dereferenceable(18) %5)
  %7 = load i64, ptr %4, align 8
  %8 = icmp ugt i64 %6, %7
  ret i1 %8
}

; Function Attrs: mustprogress nounwind uwtable
define linkonce_odr hidden noundef i32 @_ZNK4llvm14DWARFDebugLine8Prologue17sizeofTotalLengthEv(ptr noundef nonnull align 8 dereferenceable(112) %0) #0 comdat align 2 {
  %2 = alloca ptr, align 8
  store ptr %0, ptr %2, align 8
  %3 = load ptr, ptr %2, align 8
  %4 = call noundef zeroext i1 @_ZNK4llvm14DWARFDebugLine8Prologue9isDWARF64Ev(ptr noundef nonnull align 8 dereferenceable(112) %3)
  %5 = select i1 %4, i32 12, i32 4
  ret i32 %5
}

; Function Attrs: mustprogress nounwind uwtable
define dso_local noundef zeroext i1 @_ZNK4llvm14DWARFDebugLine8Prologue18totalLengthIsValidEv(ptr noundef nonnull align 8 dereferenceable(112) %0) #0 align 2 {
  %2 = alloca ptr, align 8
  store ptr %0, ptr %2, align 8
  %3 = load ptr, ptr %2, align 8
  %4 = getelementptr inbounds nuw %"struct.llvm::DWARFDebugLine::Prologue", ptr %3, i32 0, i32 0
  %5 = load i64, ptr %4, align 8
  %6 = icmp ne i64 %5, 0
  ret i1 %6
}

; Function Attrs: mustprogress nounwind uwtable
define dso_local void @_ZN4llvm14DWARFDebugLine13SectionParser15moveToNextTableEmRKNS0_8PrologueE(ptr noundef nonnull align 8 dereferenceable(73) %0, i64 noundef %1, ptr noundef nonnull align 8 dereferenceable(112) %2) #0 align 2 {
  %4 = alloca ptr, align 8
  %5 = alloca i64, align 8
  %6 = alloca ptr, align 8
  %7 = alloca ptr, align 8
  %8 = alloca %"class.std::initializer_list", align 8
  %9 = alloca [2 x i32], align 4
  %10 = alloca ptr, align 8
  %11 = alloca ptr, align 8
  %12 = alloca i32, align 4
  %13 = alloca i64, align 8
  store ptr %0, ptr %4, align 8
  store i64 %1, ptr %5, align 8
  store ptr %2, ptr %6, align 8
  %14 = load ptr, ptr %4, align 8
  %15 = load ptr, ptr %6, align 8
  %16 = call noundef zeroext i1 @_ZNK4llvm14DWARFDebugLine8Prologue18totalLengthIsValidEv(ptr noundef nonnull align 8 dereferenceable(112) %15)
  br i1 %16, label %19, label %17

17:                                               ; preds = %3
  %18 = getelementptr inbounds nuw %"class.llvm::DWARFDebugLine::SectionParser", ptr %14, i32 0, i32 4
  store i8 1, ptr %18, align 8
  br label %77

19:                                               ; preds = %3
  %20 = load i64, ptr %5, align 8
  %21 = load ptr, ptr %6, align 8
  %22 = getelementptr inbounds nuw %"struct.llvm::DWARFDebugLine::Prologue", ptr %21, i32 0, i32 0
  %23 = load i64, ptr %22, align 8
  %24 = add i64 %20, %23
  %25 = load ptr, ptr %6, align 8
  %26 = call noundef i32 @_ZNK4llvm14DWARFDebugLine8Prologue17sizeofTotalLengthEv(ptr noundef nonnull align 8 dereferenceable(112) %25)
  %27 = zext i32 %26 to i64
  %28 = add i64 %24, %27
  %29 = getelementptr inbounds nuw %"class.llvm::DWARFDebugLine::SectionParser", ptr %14, i32 0, i32 3
  store i64 %28, ptr %29, align 8
  %30 = getelementptr inbounds nuw %"class.llvm::DWARFDebugLine::SectionParser", ptr %14, i32 0, i32 1
  %31 = load ptr, ptr %30, align 8
  %32 = getelementptr inbounds nuw %"class.llvm::DWARFDebugLine::SectionParser", ptr %14, i32 0, i32 3
  %33 = load i64, ptr %32, align 8
  %34 = call noundef zeroext i1 @_ZNK4llvm13DataExtractor13isValidOffsetEm(ptr noundef nonnull align 8 dereferenceable(18) %31, i64 noundef %33)
  br i1 %34, label %37, label %35

35:                                               ; preds = %19
  %36 = getelementptr inbounds nuw %"class.llvm::DWARFDebugLine::SectionParser", ptr %14, i32 0, i32 4
  store i8 1, ptr %36, align 8
  br label %77

37:                                               ; preds = %19
  %38 = getelementptr inbounds nuw %"class.llvm::DWARFDebugLine::SectionParser", ptr %14, i32 0, i32 3
  %39 = load i64, ptr %38, align 8
  %40 = call noundef zeroext i1 @_ZN4llvm14DWARFDebugLine13SectionParser15hasValidVersionEm(ptr noundef nonnull align 8 dereferenceable(73) %14, i64 noundef %39)
  br i1 %40, label %41, label %42

41:                                               ; preds = %37
  br label %77

42:                                               ; preds = %37
  store i32 4, ptr %9, align 4
  %43 = getelementptr inbounds i32, ptr %9, i64 1
  store i32 8, ptr %43, align 4
  %44 = getelementptr inbounds nuw %"class.std::initializer_list", ptr %8, i32 0, i32 0
  store ptr %9, ptr %44, align 8
  %45 = getelementptr inbounds nuw %"class.std::initializer_list", ptr %8, i32 0, i32 1
  store i64 2, ptr %45, align 8
  store ptr %8, ptr %7, align 8
  %46 = load ptr, ptr %7, align 8
  %47 = call noundef ptr @_ZNKSt16initializer_listIiE5beginEv(ptr noundef nonnull align 8 dereferenceable(16) %46) #14
  store ptr %47, ptr %10, align 8
  %48 = load ptr, ptr %7, align 8
  %49 = call noundef ptr @_ZNKSt16initializer_listIiE3endEv(ptr noundef nonnull align 8 dereferenceable(16) %48) #14
  store ptr %49, ptr %11, align 8
  br label %50

50:                                               ; preds = %74, %42
  %51 = load ptr, ptr %10, align 8
  %52 = load ptr, ptr %11, align 8
  %53 = icmp ne ptr %51, %52
  br i1 %53, label %54, label %77

54:                                               ; preds = %50
  %55 = load ptr, ptr %10, align 8
  %56 = load i32, ptr %55, align 4
  store i32 %56, ptr %12, align 4
  %57 = getelementptr inbounds nuw %"class.llvm::DWARFDebugLine::SectionParser", ptr %14, i32 0, i32 3
  %58 = load i64, ptr %57, align 8
  %59 = load i32, ptr %12, align 4
  %60 = call noundef i64 @_ZN4llvm7alignToImjmEET1_T_T0_(i64 noundef %58, i32 noundef %59)
  store i64 %60, ptr %13, align 8
  %61 = getelementptr inbounds nuw %"class.llvm::DWARFDebugLine::SectionParser", ptr %14, i32 0, i32 1
  %62 = load ptr, ptr %61, align 8
  %63 = load i64, ptr %13, align 8
  %64 = call noundef zeroext i1 @_ZNK4llvm13DataExtractor13isValidOffsetEm(ptr noundef nonnull align 8 dereferenceable(18) %62, i64 noundef %63)
  br i1 %64, label %67, label %65

65:                                               ; preds = %54
  %66 = getelementptr inbounds nuw %"class.llvm::DWARFDebugLine::SectionParser", ptr %14, i32 0, i32 4
  store i8 1, ptr %66, align 8
  br label %77

67:                                               ; preds = %54
  %68 = load i64, ptr %13, align 8
  %69 = call noundef zeroext i1 @_ZN4llvm14DWARFDebugLine13SectionParser15hasValidVersionEm(ptr noundef nonnull align 8 dereferenceable(73) %14, i64 noundef %68)
  br i1 %69, label %70, label %73

70:                                               ; preds = %67
  %71 = load i64, ptr %13, align 8
  %72 = getelementptr inbounds nuw %"class.llvm::DWARFDebugLine::SectionParser", ptr %14, i32 0, i32 3
  store i64 %71, ptr %72, align 8
  br label %77

73:                                               ; preds = %67
  br label %74

74:                                               ; preds = %73
  %75 = load ptr, ptr %10, align 8
  %76 = getelementptr inbounds i32, ptr %75, i32 1
  store ptr %76, ptr %10, align 8
  br label %50

77:                                               ; preds = %70, %65, %50, %41, %35, %17
  ret void
}