; Function Attrs: mustprogress nounwind uwtable
define dso_local void @_ZN4llvm14DWARFDebugLine13SectionParser15moveToNextTableEmRKNS0_8PrologueE(ptr noundef nonnull align 8 captures(none) dereferenceable(73) %0, i64 noundef %1, ptr noundef nonnull readonly align 8 captures(none) dereferenceable(112) %2) local_unnamed_addr #5 align 2 {
  %4 = alloca [2 x i32], align 4
  %5 = load i64, ptr %2, align 8
  %.not15 = icmp eq i64 %5, 0
  br i1 %.not15, label %6, label %8

6:                                                ; preds = %3
  %7 = getelementptr inbounds nuw i8, ptr %0, i64 72
  store i8 1, ptr %7, align 8
  br label %.loopexit

8:                                                ; preds = %3
  %9 = add i64 %5, %1
  %10 = getelementptr inbounds nuw i8, ptr %2, i64 11
  %11 = load i8, ptr %10, align 1
  %12 = icmp eq i8 %11, 1
  %13 = select i1 %12, i64 12, i64 4
  %14 = add i64 %9, %13
  %15 = getelementptr inbounds nuw i8, ptr %0, i64 64
  store i64 %14, ptr %15, align 8
  %16 = getelementptr inbounds nuw i8, ptr %0, i64 48
  %17 = load ptr, ptr %16, align 8
  %18 = getelementptr inbounds nuw i8, ptr %17, i64 8
  %19 = load i64, ptr %18, align 8
  %20 = icmp ugt i64 %19, %14
  br i1 %20, label %23, label %21

21:                                               ; preds = %8
  %22 = getelementptr inbounds nuw i8, ptr %0, i64 72
  store i8 1, ptr %22, align 8
  br label %.loopexit

23:                                               ; preds = %8
  %24 = tail call noundef zeroext i1 @_ZN4llvm14DWARFDebugLine13SectionParser15hasValidVersionEm(ptr noundef nonnull align 8 dereferenceable(73) %0, i64 noundef %14)
  br i1 %24, label %.loopexit, label %25

25:                                               ; preds = %23
  store i32 4, ptr %4, align 4
  %26 = getelementptr inbounds nuw i8, ptr %4, i64 4
  store i32 8, ptr %26, align 4
  br label %28

27:                                               ; preds = %44
  %.0.add = add nuw nsw i64 %.0.idx17, 4
  %.not = icmp eq i64 %.0.add, 8
  br i1 %.not, label %.loopexit, label %28

28:                                               ; preds = %25, %27
  %.0.idx17 = phi i64 [ 0, %25 ], [ %.0.add, %27 ]
  %.0.ptr = getelementptr inbounds nuw i8, ptr %4, i64 %.0.idx17
  %29 = load i32, ptr %.0.ptr, align 4
  %30 = load i64, ptr %15, align 8
  %31 = icmp ne i64 %30, 0
  %32 = zext i1 %31 to i64
  %33 = sub i64 %30, %32
  %34 = zext i32 %29 to i64
  %35 = udiv i64 %33, %34
  %36 = add i64 %35, %32
  %37 = mul i64 %36, %34
  %38 = load ptr, ptr %16, align 8
  %39 = getelementptr inbounds nuw i8, ptr %38, i64 8
  %40 = load i64, ptr %39, align 8
  %41 = icmp ugt i64 %40, %37
  br i1 %41, label %44, label %42

42:                                               ; preds = %28
  %43 = getelementptr inbounds nuw i8, ptr %0, i64 72
  store i8 1, ptr %43, align 8
  br label %.loopexit

44:                                               ; preds = %28
  %45 = tail call noundef zeroext i1 @_ZN4llvm14DWARFDebugLine13SectionParser15hasValidVersionEm(ptr noundef nonnull align 8 dereferenceable(73) %0, i64 noundef %37)
  br i1 %45, label %46, label %27

46:                                               ; preds = %44
  store i64 %37, ptr %15, align 8
  br label %.loopexit

.loopexit:                                        ; preds = %27, %23, %46, %42, %21, %6
  ret void
}